; Function Attrs: nounwind uwtable
define internal range(i32 -1, 2) i32 @H5Z__check_unregister_dset_cb(ptr nocapture readnone %0, i64 noundef %1, ptr nocapture noundef %2) #0 {
  %4 = alloca %struct.H5VL_dataset_get_args_t, align 8
  %5 = tail call ptr @H5I_object_verify(i64 noundef %1, i32 noundef 5) #9
  %6 = icmp eq ptr %5, null
  br i1 %6, label %7, label %11

7:                                                ; preds = %3
  %8 = load i64, ptr @H5E_ARGS_g, align 8
  %9 = load i64, ptr @H5E_BADTYPE_g, align 8
  %10 = tail call i32 (ptr, ptr, i32, i64, i64, ptr, ...) @H5E_printf_stack(ptr noundef nonnull @.str, ptr noundef nonnull @__func__.H5Z__check_unregister_dset_cb, i32 noundef 566, i64 noundef %8, i64 noundef %9, ptr noundef nonnull @.str.47) #9
  br label %.thread

11:                                               ; preds = %3
  store i32 1, ptr %4, align 8
  %12 = getelementptr inbounds i8, ptr %4, i64 8
  store i64 -1, ptr %12, align 8
  %13 = load i64, ptr @H5P_LST_DATASET_XFER_ID_g, align 8
  %14 = call i32 @H5VL_dataset_get(ptr noundef nonnull %5, ptr noundef nonnull %4, i64 noundef %13, ptr noundef null) #9
  %15 = icmp slt i32 %14, 0
  br i1 %15, label %16, label %20

16:                                               ; preds = %11
  %17 = load i64, ptr @H5E_DATASET_g, align 8
  %18 = load i64, ptr @H5E_CANTGET_g, align 8
  %19 = call i32 (ptr, ptr, i32, i64, i64, ptr, ...) @H5E_printf_stack(ptr noundef nonnull @.str, ptr noundef nonnull @__func__.H5Z__check_unregister_dset_cb, i32 noundef 574, i64 noundef %17, i64 noundef %18, ptr noundef nonnull @.str.48) #9
  br label %.thread

20:                                               ; preds = %11
  %21 = load i64, ptr %12, align 8
  %22 = icmp slt i64 %21, 0
  br i1 %22, label %23, label %27

23:                                               ; preds = %20
  %24 = load i64, ptr @H5E_PLINE_g, align 8
  %25 = load i64, ptr @H5E_CANTGET_g, align 8
  %26 = call i32 (ptr, ptr, i32, i64, i64, ptr, ...) @H5E_printf_stack(ptr noundef nonnull @.str, ptr noundef nonnull @__func__.H5Z__check_unregister_dset_cb, i32 noundef 577, i64 noundef %24, i64 noundef %25, ptr noundef nonnull @.str.23) #9
  br label %.thread

27:                                               ; preds = %20
  %28 = load i32, ptr %2, align 4
  %29 = load i64, ptr @H5P_CLS_OBJECT_CREATE_ID_g, align 8
  %30 = call ptr @H5P_object_verify(i64 noundef %21, i64 noundef %29) #9
  %31 = icmp eq ptr %30, null
  br i1 %31, label %32, label %36

32:                                               ; preds = %27
  %33 = load i64, ptr @H5E_PLINE_g, align 8
  %34 = load i64, ptr @H5E_BADID_g, align 8
  %35 = call i32 (ptr, ptr, i32, i64, i64, ptr, ...) @H5E_printf_stack(ptr noundef nonnull @.str, ptr noundef nonnull @__func__.H5Z__check_unregister, i32 noundef 467, i64 noundef %33, i64 noundef %34, ptr noundef nonnull @.str.46) #9
  br label %43

36:                                               ; preds = %27
  %37 = call i32 @H5P_filter_in_pline(ptr noundef nonnull %30, i32 noundef %28) #9
  %38 = icmp slt i32 %37, 0
  br i1 %38, label %39, label %H5Z__check_unregister.exit

39:                                               ; preds = %36
  %40 = load i64, ptr @H5E_PLINE_g, align 8
  %41 = load i64, ptr @H5E_CANTGET_g, align 8
  %42 = call i32 (ptr, ptr, i32, i64, i64, ptr, ...) @H5E_printf_stack(ptr noundef nonnull @.str, ptr noundef nonnull @__func__.H5Z__check_unregister, i32 noundef 471, i64 noundef %40, i64 noundef %41, ptr noundef nonnull @.str.44) #9
  br label %43

43:                                               ; preds = %32, %39
  %44 = load i64, ptr @H5E_PLINE_g, align 8
  %45 = load i64, ptr @H5E_CANTGET_g, align 8
  %46 = call i32 (ptr, ptr, i32, i64, i64, ptr, ...) @H5E_printf_stack(ptr noundef nonnull @.str, ptr noundef nonnull @__func__.H5Z__check_unregister_dset_cb, i32 noundef 581, i64 noundef %44, i64 noundef %45, ptr noundef nonnull @.str.44) #9
  br label %49

H5Z__check_unregister.exit:                       ; preds = %36
  %.not = icmp eq i32 %37, 0
  br i1 %.not, label %49, label %47

47:                                               ; preds = %H5Z__check_unregister.exit
  %48 = getelementptr inbounds i8, ptr %2, i64 4
  store i32 1, ptr %48, align 4
  br label %49

49:                                               ; preds = %H5Z__check_unregister.exit, %47, %43
  %.0 = phi i32 [ -1, %43 ], [ 1, %47 ], [ 0, %H5Z__check_unregister.exit ]
  %.not22 = icmp eq i64 %21, 0
  br i1 %.not22, label %.thread, label %50

50:                                               ; preds = %49
  %51 = call i32 @H5I_dec_app_ref(i64 noundef %21) #9
  %52 = icmp slt i32 %51, 0
  br i1 %52, label %53, label %.thread

53:                                               ; preds = %50
  %54 = load i64, ptr @H5E_PLINE_g, align 8
  %55 = load i64, ptr @H5E_CANTDEC_g, align 8
  %56 = call i32 (ptr, ptr, i32, i64, i64, ptr, ...) @H5E_printf_stack(ptr noundef nonnull @.str, ptr noundef nonnull @__func__.H5Z__check_unregister_dset_cb, i32 noundef 594, i64 noundef %54, i64 noundef %55, ptr noundef nonnull @.str.45) #9
  br label %.thread

.thread:                                          ; preds = %23, %16, %7, %50, %53, %49
  %.1 = phi i32 [ -1, %53 ], [ %.0, %50 ], [ %.0, %49 ], [ -1, %7 ], [ -1, %16 ], [ -1, %23 ]
  ret i32 %.1
}